target datalayout = "e-m:e-p270:32:32-p271:32:32-p272:64:64-i64:64-i128:128-f80:128-n8:16:32:64-S128"
target triple = "x86_64-pc-linux-gnu"

%struct.DiracArith = type { i32, i16, i16, ptr, ptr, [22 x i16], i32, i32 }

@.str.27 = private unnamed_addr constant [31 x i8] c"dirac_get_arith_uint overflow\0A\00", align 1
@ff_dirac_next_ctx = external constant [22 x i8], align 16
@ff_dirac_prob_branchless = external global [256 x [2 x i16]], align 16

; Function Attrs: alwaysinline nounwind willreturn memory(none) uwtable
define internal zeroext i16 @av_bswap16(i16 noundef zeroext %0) #5 {
  %2 = alloca i16, align 2
  store i16 %0, ptr %2, align 2, !tbaa !100
  %3 = load i16, ptr %2, align 2, !tbaa !100
  %4 = zext i16 %3 to i32
  %5 = ashr i32 %4, 8
  %6 = load i16, ptr %2, align 2, !tbaa !100
  %7 = zext i16 %6 to i32
  %8 = shl i32 %7, 8
  %9 = or i32 %5, %8
  %10 = trunc i32 %9 to i16
  store i16 %10, ptr %2, align 2, !tbaa !100
  %11 = load i16, ptr %2, align 2, !tbaa !100
  ret i16 %11
}

; Function Attrs: alwaysinline nounwind uwtable
define internal i32 @bytestream_get_be16(ptr noundef %0) #10 {
  %2 = alloca ptr, align 8
  store ptr %0, ptr %2, align 8, !tbaa !252
  %3 = load ptr, ptr %2, align 8, !tbaa !252
  %4 = load ptr, ptr %3, align 8, !tbaa !59
  %5 = getelementptr inbounds i8, ptr %4, i64 2
  store ptr %5, ptr %3, align 8, !tbaa !59
  %6 = load ptr, ptr %2, align 8, !tbaa !252
  %7 = load ptr, ptr %6, align 8, !tbaa !59
  %8 = getelementptr inbounds i8, ptr %7, i64 -2
  %9 = load i16, ptr %8, align 1, !tbaa !64
  %10 = call zeroext i16 @av_bswap16(i16 noundef zeroext %9) #13
  %11 = zext i16 %10 to i32
  ret i32 %11
}

; Function Attrs: inlinehint nounwind uwtable
define internal void @refill(ptr noundef %0) #6 {
  %2 = alloca ptr, align 8
  %3 = alloca i32, align 4
  %4 = alloca i32, align 4
  store ptr %0, ptr %2, align 8, !tbaa !67
  call void @llvm.lifetime.start.p0(i64 4, ptr %3) #12
  %5 = load ptr, ptr %2, align 8, !tbaa !67
  %6 = getelementptr inbounds nuw %struct.DiracArith, ptr %5, i32 0, i32 2
  %7 = load i16, ptr %6, align 2, !tbaa !247
  %8 = sext i16 %7 to i32
  store i32 %8, ptr %3, align 4, !tbaa !47
  %9 = load i32, ptr %3, align 4, !tbaa !47
  %10 = icmp sge i32 %9, 0
  br i1 %10, label %11, label %64

11:                                               ; preds = %1
  call void @llvm.lifetime.start.p0(i64 4, ptr %4) #12
  %12 = load ptr, ptr %2, align 8, !tbaa !67
  %13 = getelementptr inbounds nuw %struct.DiracArith, ptr %12, i32 0, i32 3
  %14 = call i32 @bytestream_get_be16(ptr noundef %13)
  store i32 %14, ptr %4, align 4, !tbaa !47
  %15 = load ptr, ptr %2, align 8, !tbaa !67
  %16 = getelementptr inbounds nuw %struct.DiracArith, ptr %15, i32 0, i32 3
  %17 = load ptr, ptr %16, align 8, !tbaa !249
  %18 = load ptr, ptr %2, align 8, !tbaa !67
  %19 = getelementptr inbounds nuw %struct.DiracArith, ptr %18, i32 0, i32 4
  %20 = load ptr, ptr %19, align 8, !tbaa !250
  %21 = icmp ugt ptr %17, %20
  br i1 %21, label %22, label %54

22:                                               ; preds = %11
  %23 = load i32, ptr %4, align 4, !tbaa !47
  %24 = or i32 %23, 255
  store i32 %24, ptr %4, align 4, !tbaa !47
  %25 = load ptr, ptr %2, align 8, !tbaa !67
  %26 = getelementptr inbounds nuw %struct.DiracArith, ptr %25, i32 0, i32 3
  %27 = load ptr, ptr %26, align 8, !tbaa !249
  %28 = load ptr, ptr %2, align 8, !tbaa !67
  %29 = getelementptr inbounds nuw %struct.DiracArith, ptr %28, i32 0, i32 4
  %30 = load ptr, ptr %29, align 8, !tbaa !250
  %31 = getelementptr inbounds i8, ptr %30, i64 1
  %32 = icmp ugt ptr %27, %31
  br i1 %32, label %33, label %36

33:                                               ; preds = %22
  %34 = load i32, ptr %4, align 4, !tbaa !47
  %35 = or i32 %34, 65280
  store i32 %35, ptr %4, align 4, !tbaa !47
  br label %36

36:                                               ; preds = %33, %22
  %37 = load ptr, ptr %2, align 8, !tbaa !67
  %38 = getelementptr inbounds nuw %struct.DiracArith, ptr %37, i32 0, i32 4
  %39 = load ptr, ptr %38, align 8, !tbaa !250
  %40 = load ptr, ptr %2, align 8, !tbaa !67
  %41 = getelementptr inbounds nuw %struct.DiracArith, ptr %40, i32 0, i32 3
  store ptr %39, ptr %41, align 8, !tbaa !249
  %42 = load ptr, ptr %2, align 8, !tbaa !67
  %43 = getelementptr inbounds nuw %struct.DiracArith, ptr %42, i32 0, i32 7
  %44 = load i32, ptr %43, align 8, !tbaa !251
  %45 = add nsw i32 %44, 1
  store i32 %45, ptr %43, align 8, !tbaa !251
  %46 = load ptr, ptr %2, align 8, !tbaa !67
  %47 = getelementptr inbounds nuw %struct.DiracArith, ptr %46, i32 0, i32 7
  %48 = load i32, ptr %47, align 8, !tbaa !251
  %49 = icmp sgt i32 %48, 4
  br i1 %49, label %50, label %53

50:                                               ; preds = %36
  %51 = load ptr, ptr %2, align 8, !tbaa !67
  %52 = getelementptr inbounds nuw %struct.DiracArith, ptr %51, i32 0, i32 6
  store i32 -1094995529, ptr %52, align 4, !tbaa !201
  br label %53

53:                                               ; preds = %50, %36
  br label %54

54:                                               ; preds = %53, %11
  %55 = load i32, ptr %4, align 4, !tbaa !47
  %56 = load i32, ptr %3, align 4, !tbaa !47
  %57 = shl i32 %55, %56
  %58 = load ptr, ptr %2, align 8, !tbaa !67
  %59 = getelementptr inbounds nuw %struct.DiracArith, ptr %58, i32 0, i32 0
  %60 = load i32, ptr %59, align 8, !tbaa !245
  %61 = add i32 %60, %57
  store i32 %61, ptr %59, align 8, !tbaa !245
  %62 = load i32, ptr %3, align 4, !tbaa !47
  %63 = sub nsw i32 %62, 16
  store i32 %63, ptr %3, align 4, !tbaa !47
  call void @llvm.lifetime.end.p0(i64 4, ptr %4) #12
  br label %64

64:                                               ; preds = %54, %1
  %65 = load i32, ptr %3, align 4, !tbaa !47
  %66 = trunc i32 %65 to i16
  %67 = load ptr, ptr %2, align 8, !tbaa !67
  %68 = getelementptr inbounds nuw %struct.DiracArith, ptr %67, i32 0, i32 2
  store i16 %66, ptr %68, align 2, !tbaa !247
  call void @llvm.lifetime.end.p0(i64 4, ptr %3) #12
  ret void
}

; Function Attrs: inlinehint nounwind uwtable
define internal void @renorm(ptr noundef %0) #6 {
  %2 = alloca ptr, align 8
  store ptr %0, ptr %2, align 8, !tbaa !67
  br label %3

3:                                                ; preds = %9, %1
  %4 = load ptr, ptr %2, align 8, !tbaa !67
  %5 = getelementptr inbounds nuw %struct.DiracArith, ptr %4, i32 0, i32 1
  %6 = load i16, ptr %5, align 4, !tbaa !246
  %7 = zext i16 %6 to i32
  %8 = icmp sle i32 %7, 16384
  br i1 %8, label %9, label %24

9:                                                ; preds = %3
  %10 = load ptr, ptr %2, align 8, !tbaa !67
  %11 = getelementptr inbounds nuw %struct.DiracArith, ptr %10, i32 0, i32 0
  %12 = load i32, ptr %11, align 8, !tbaa !245
  %13 = shl i32 %12, 1
  store i32 %13, ptr %11, align 8, !tbaa !245
  %14 = load ptr, ptr %2, align 8, !tbaa !67
  %15 = getelementptr inbounds nuw %struct.DiracArith, ptr %14, i32 0, i32 1
  %16 = load i16, ptr %15, align 4, !tbaa !246
  %17 = zext i16 %16 to i32
  %18 = shl i32 %17, 1
  %19 = trunc i32 %18 to i16
  store i16 %19, ptr %15, align 4, !tbaa !246
  %20 = load ptr, ptr %2, align 8, !tbaa !67
  %21 = getelementptr inbounds nuw %struct.DiracArith, ptr %20, i32 0, i32 2
  %22 = load i16, ptr %21, align 2, !tbaa !247
  %23 = add i16 %22, 1
  store i16 %23, ptr %21, align 2, !tbaa !247
  br label %3, !llvm.loop !248

24:                                               ; preds = %3
  ret void
}

; Function Attrs: inlinehint nounwind uwtable
define internal i32 @dirac_get_arith_bit(ptr noundef %0, i32 noundef %1) #6 {
  %3 = alloca ptr, align 8
  %4 = alloca i32, align 4
  %5 = alloca i32, align 4
  %6 = alloca i32, align 4
  %7 = alloca i32, align 4
  %8 = alloca i32, align 4
  %9 = alloca i32, align 4
  store ptr %0, ptr %3, align 8, !tbaa !67
  store i32 %1, ptr %4, align 4, !tbaa !47
  call void @llvm.lifetime.start.p0(i64 4, ptr %5) #12
  %10 = load ptr, ptr %3, align 8, !tbaa !67
  %11 = getelementptr inbounds nuw %struct.DiracArith, ptr %10, i32 0, i32 5
  %12 = load i32, ptr %4, align 4, !tbaa !47
  %13 = sext i32 %12 to i64
  %14 = getelementptr inbounds [22 x i16], ptr %11, i64 0, i64 %13
  %15 = load i16, ptr %14, align 2, !tbaa !100
  %16 = zext i16 %15 to i32
  store i32 %16, ptr %5, align 4, !tbaa !47
  call void @llvm.lifetime.start.p0(i64 4, ptr %6) #12
  call void @llvm.lifetime.start.p0(i64 4, ptr %7) #12
  call void @llvm.lifetime.start.p0(i64 4, ptr %8) #12
  %17 = load ptr, ptr %3, align 8, !tbaa !67
  %18 = getelementptr inbounds nuw %struct.DiracArith, ptr %17, i32 0, i32 0
  %19 = load i32, ptr %18, align 8, !tbaa !245
  store i32 %19, ptr %8, align 4, !tbaa !47
  call void @llvm.lifetime.start.p0(i64 4, ptr %9) #12
  %20 = load ptr, ptr %3, align 8, !tbaa !67
  %21 = getelementptr inbounds nuw %struct.DiracArith, ptr %20, i32 0, i32 1
  %22 = load i16, ptr %21, align 4, !tbaa !246
  %23 = zext i16 %22 to i32
  store i32 %23, ptr %9, align 4, !tbaa !47
  %24 = load ptr, ptr %3, align 8, !tbaa !67
  %25 = getelementptr inbounds nuw %struct.DiracArith, ptr %24, i32 0, i32 1
  %26 = load i16, ptr %25, align 4, !tbaa !246
  %27 = zext i16 %26 to i32
  %28 = load i32, ptr %5, align 4, !tbaa !47
  %29 = mul nsw i32 %27, %28
  %30 = ashr i32 %29, 16
  store i32 %30, ptr %6, align 4, !tbaa !47
  %31 = load i32, ptr %8, align 4, !tbaa !47
  %32 = lshr i32 %31, 16
  %33 = load i32, ptr %6, align 4, !tbaa !47
  %34 = icmp uge i32 %32, %33
  %35 = zext i1 %34 to i32
  store i32 %35, ptr %7, align 4, !tbaa !47
  %36 = load i32, ptr %7, align 4, !tbaa !47
  %37 = icmp ne i32 %36, 0
  br i1 %37, label %38, label %46

38:                                               ; preds = %2
  %39 = load i32, ptr %6, align 4, !tbaa !47
  %40 = shl i32 %39, 16
  %41 = load i32, ptr %8, align 4, !tbaa !47
  %42 = sub i32 %41, %40
  store i32 %42, ptr %8, align 4, !tbaa !47
  %43 = load i32, ptr %6, align 4, !tbaa !47
  %44 = load i32, ptr %9, align 4, !tbaa !47
  %45 = sub nsw i32 %44, %43
  store i32 %45, ptr %9, align 4, !tbaa !47
  br label %48

46:                                               ; preds = %2
  %47 = load i32, ptr %6, align 4, !tbaa !47
  store i32 %47, ptr %9, align 4, !tbaa !47
  br label %48

48:                                               ; preds = %46, %38
  %49 = load i32, ptr %5, align 4, !tbaa !47
  %50 = ashr i32 %49, 8
  %51 = sext i32 %50 to i64
  %52 = getelementptr inbounds [256 x [2 x i16]], ptr @ff_dirac_prob_branchless, i64 0, i64 %51
  %53 = load i32, ptr %7, align 4, !tbaa !47
  %54 = sext i32 %53 to i64
  %55 = getelementptr inbounds [2 x i16], ptr %52, i64 0, i64 %54
  %56 = load i16, ptr %55, align 2, !tbaa !100
  %57 = sext i16 %56 to i32
  %58 = load ptr, ptr %3, align 8, !tbaa !67
  %59 = getelementptr inbounds nuw %struct.DiracArith, ptr %58, i32 0, i32 5
  %60 = load i32, ptr %4, align 4, !tbaa !47
  %61 = sext i32 %60 to i64
  %62 = getelementptr inbounds [22 x i16], ptr %59, i64 0, i64 %61
  %63 = load i16, ptr %62, align 2, !tbaa !100
  %64 = zext i16 %63 to i32
  %65 = add nsw i32 %64, %57
  %66 = trunc i32 %65 to i16
  store i16 %66, ptr %62, align 2, !tbaa !100
  %67 = load i32, ptr %8, align 4, !tbaa !47
  %68 = load ptr, ptr %3, align 8, !tbaa !67
  %69 = getelementptr inbounds nuw %struct.DiracArith, ptr %68, i32 0, i32 0
  store i32 %67, ptr %69, align 8, !tbaa !245
  %70 = load i32, ptr %9, align 4, !tbaa !47
  %71 = trunc i32 %70 to i16
  %72 = load ptr, ptr %3, align 8, !tbaa !67
  %73 = getelementptr inbounds nuw %struct.DiracArith, ptr %72, i32 0, i32 1
  store i16 %71, ptr %73, align 4, !tbaa !246
  %74 = load ptr, ptr %3, align 8, !tbaa !67
  call void @renorm(ptr noundef %74)
  %75 = load ptr, ptr %3, align 8, !tbaa !67
  call void @refill(ptr noundef %75)
  %76 = load i32, ptr %7, align 4, !tbaa !47
  call void @llvm.lifetime.end.p0(i64 4, ptr %9) #12
  call void @llvm.lifetime.end.p0(i64 4, ptr %8) #12
  call void @llvm.lifetime.end.p0(i64 4, ptr %7) #12
  call void @llvm.lifetime.end.p0(i64 4, ptr %6) #12
  call void @llvm.lifetime.end.p0(i64 4, ptr %5) #12
  ret i32 %76
}

; Function Attrs: inlinehint nounwind uwtable
define internal i32 @dirac_get_arith_uint(ptr noundef %0, i32 noundef %1, i32 noundef %2) #6 {
  %4 = alloca i32, align 4
  %5 = alloca ptr, align 8
  %6 = alloca i32, align 4
  %7 = alloca i32, align 4
  %8 = alloca i32, align 4
  %9 = alloca i32, align 4
  store ptr %0, ptr %5, align 8, !tbaa !67
  store i32 %1, ptr %6, align 4, !tbaa !47
  store i32 %2, ptr %7, align 4, !tbaa !47
  call void @llvm.lifetime.start.p0(i64 4, ptr %8) #12
  store i32 1, ptr %8, align 4, !tbaa !47
  br label %10

10:                                               ; preds = %22, %3
  %11 = load ptr, ptr %5, align 8, !tbaa !67
  %12 = load i32, ptr %6, align 4, !tbaa !47
  %13 = call i32 @dirac_get_arith_bit(ptr noundef %11, i32 noundef %12)
  %14 = icmp ne i32 %13, 0
  %15 = xor i1 %14, true
  br i1 %15, label %16, label %35

16:                                               ; preds = %10
  %17 = load i32, ptr %8, align 4, !tbaa !47
  %18 = icmp sge i32 %17, 1073741824
  br i1 %18, label %19, label %22

19:                                               ; preds = %16
  call void (ptr, i32, ptr, ...) @av_log(ptr noundef null, i32 noundef 16, ptr noundef @.str.27)
  %20 = load ptr, ptr %5, align 8, !tbaa !67
  %21 = getelementptr inbounds nuw %struct.DiracArith, ptr %20, i32 0, i32 6
  store i32 -1094995529, ptr %21, align 4, !tbaa !201
  store i32 -1, ptr %4, align 4
  store i32 1, ptr %9, align 4
  br label %38

22:                                               ; preds = %16
  %23 = load i32, ptr %8, align 4, !tbaa !47
  %24 = shl i32 %23, 1
  store i32 %24, ptr %8, align 4, !tbaa !47
  %25 = load ptr, ptr %5, align 8, !tbaa !67
  %26 = load i32, ptr %7, align 4, !tbaa !47
  %27 = call i32 @dirac_get_arith_bit(ptr noundef %25, i32 noundef %26)
  %28 = load i32, ptr %8, align 4, !tbaa !47
  %29 = add nsw i32 %28, %27
  store i32 %29, ptr %8, align 4, !tbaa !47
  %30 = load i32, ptr %6, align 4, !tbaa !47
  %31 = sext i32 %30 to i64
  %32 = getelementptr inbounds [22 x i8], ptr @ff_dirac_next_ctx, i64 0, i64 %31
  %33 = load i8, ptr %32, align 1, !tbaa !64
  %34 = zext i8 %33 to i32
  store i32 %34, ptr %6, align 4, !tbaa !47
  br label %10, !llvm.loop !236

35:                                               ; preds = %10
  %36 = load i32, ptr %8, align 4, !tbaa !47
  %37 = sub nsw i32 %36, 1
  store i32 %37, ptr %4, align 4
  store i32 1, ptr %9, align 4
  br label %38

38:                                               ; preds = %35, %19
  call void @llvm.lifetime.end.p0(i64 4, ptr %8) #12
  %39 = load i32, ptr %4, align 4
  ret i32 %39
}