; Function Attrs: inlinehint nounwind uwtable
define internal fastcc range(i32 -2147483648, 2147483647) i32 @dirac_get_arith_uint(ptr noundef nonnull captures(none) %0, i32 noundef range(i32 0, 20) %1, i32 noundef range(i32 0, 21) %2) unnamed_addr #9 {
  %4 = getelementptr inbounds nuw i8, ptr %0, i64 24
  %5 = getelementptr inbounds nuw i8, ptr %0, i64 4
  %6 = getelementptr inbounds nuw i8, ptr %0, i64 6
  %.promoted = load i32, ptr %0, align 8, !tbaa !164
  %.promoted31 = load i16, ptr %5, align 4, !tbaa !166
  %.promoted32 = load i16, ptr %6, align 2, !tbaa !167
  %7 = getelementptr inbounds nuw i8, ptr %0, i64 8
  %8 = getelementptr inbounds nuw i8, ptr %0, i64 16
  %9 = getelementptr inbounds nuw i8, ptr %0, i64 72
  %10 = getelementptr inbounds nuw i8, ptr %0, i64 68
  %11 = zext nneg i32 %2 to i64
  %12 = getelementptr inbounds nuw [22 x i16], ptr %4, i64 0, i64 %11
  br label %13

13:                                               ; preds = %dirac_get_arith_bit.exit21, %3
  %.019.i.i1633 = phi i16 [ %.promoted32, %3 ], [ %.019.i.i16, %dirac_get_arith_bit.exit21 ]
  %14 = phi i16 [ %.promoted31, %3 ], [ %97, %dirac_get_arith_bit.exit21 ]
  %.lcssa2630 = phi i32 [ %.promoted, %3 ], [ %.lcssa2629, %dirac_get_arith_bit.exit21 ]
  %.011 = phi i32 [ %1, %3 ], [ %126, %dirac_get_arith_bit.exit21 ]
  %.0 = phi i32 [ 1, %3 ], [ %123, %dirac_get_arith_bit.exit21 ]
  %15 = zext nneg i32 %.011 to i64
  %16 = getelementptr inbounds nuw [22 x i16], ptr %4, i64 0, i64 %15
  %17 = load i16, ptr %16, align 2, !tbaa !95
  %18 = zext i16 %17 to i32
  %19 = zext i16 %14 to i32
  %20 = mul nuw nsw i32 %19, %18
  %21 = lshr i32 %20, 16
  %22 = lshr i32 %.lcssa2630, 16
  %23 = icmp samesign uge i32 %22, %21
  %24 = and i32 %20, 2147418112
  %25 = sub nsw i32 %19, %21
  %26 = select i1 %23, i32 %24, i32 0
  %.024.i = sub i32 %.lcssa2630, %26
  %.0.i = select i1 %23, i32 %25, i32 %21
  %27 = lshr i32 %18, 8
  %28 = zext nneg i32 %27 to i64
  %29 = zext i1 %23 to i64
  %30 = getelementptr inbounds nuw [256 x [2 x i16]], ptr @ff_dirac_prob_branchless, i64 0, i64 %28, i64 %29
  %31 = load i16, ptr %30, align 2, !tbaa !95
  %32 = add i16 %31, %17
  store i16 %32, ptr %16, align 2, !tbaa !95
  store i32 %.024.i, ptr %0, align 8, !tbaa !164
  %33 = trunc i32 %.0.i to i16
  store i16 %33, ptr %5, align 4, !tbaa !166
  %34 = icmp ult i16 %33, 16385
  br i1 %34, label %.lr.ph.i.i, label %renorm.exit.i

.lr.ph.i.i:                                       ; preds = %13, %.lr.ph.i.i
  %35 = phi i16 [ %40, %.lr.ph.i.i ], [ %.019.i.i1633, %13 ]
  %36 = phi i32 [ %38, %.lr.ph.i.i ], [ %.024.i, %13 ]
  %37 = phi i16 [ %39, %.lr.ph.i.i ], [ %33, %13 ]
  %38 = shl i32 %36, 1
  %39 = shl nuw i16 %37, 1
  %40 = add i16 %35, 1
  %41 = icmp ult i16 %37, 8193
  br i1 %41, label %.lr.ph.i.i, label %._crit_edge.i.i, !llvm.loop !168

._crit_edge.i.i:                                  ; preds = %.lr.ph.i.i
  store i32 %38, ptr %0, align 8, !tbaa !164
  store i16 %39, ptr %5, align 4, !tbaa !166
  store i16 %40, ptr %6, align 2, !tbaa !167
  br label %renorm.exit.i

renorm.exit.i:                                    ; preds = %._crit_edge.i.i, %13
  %42 = phi i16 [ %39, %._crit_edge.i.i ], [ %33, %13 ]
  %43 = phi i32 [ %38, %._crit_edge.i.i ], [ %.024.i, %13 ]
  %44 = phi i16 [ %40, %._crit_edge.i.i ], [ %.019.i.i1633, %13 ]
  %45 = icmp sgt i16 %44, -1
  br i1 %45, label %46, label %dirac_get_arith_bit.exit

46:                                               ; preds = %renorm.exit.i
  %47 = load ptr, ptr %7, align 8, !tbaa !52
  %48 = getelementptr inbounds nuw i8, ptr %47, i64 2
  store ptr %48, ptr %7, align 8, !tbaa !52
  %49 = load i16, ptr %47, align 1, !tbaa !61
  %50 = tail call i16 @llvm.bswap.i16(i16 %49)
  %51 = zext i16 %50 to i32
  %52 = load ptr, ptr %8, align 8, !tbaa !169
  %53 = icmp ugt ptr %48, %52
  br i1 %53, label %54, label %62

54:                                               ; preds = %46
  %55 = or i32 %51, 255
  %56 = getelementptr inbounds nuw i8, ptr %52, i64 1
  %57 = icmp ugt ptr %48, %56
  %spec.select.i.i = select i1 %57, i32 65535, i32 %55
  store ptr %52, ptr %7, align 8, !tbaa !170
  %58 = load i32, ptr %9, align 8, !tbaa !171
  %59 = add nsw i32 %58, 1
  store i32 %59, ptr %9, align 8, !tbaa !171
  %60 = icmp sgt i32 %58, 3
  br i1 %60, label %61, label %62

61:                                               ; preds = %54
  store i32 -1094995529, ptr %10, align 4, !tbaa !172
  br label %62

62:                                               ; preds = %61, %54, %46
  %.0.i.i = phi i32 [ %spec.select.i.i, %61 ], [ %spec.select.i.i, %54 ], [ %51, %46 ]
  %63 = zext nneg i16 %44 to i32
  %64 = shl i32 %.0.i.i, %63
  %65 = add i32 %64, %43
  store i32 %65, ptr %0, align 8, !tbaa !164
  %66 = add nsw i16 %44, -16
  br label %dirac_get_arith_bit.exit

dirac_get_arith_bit.exit:                         ; preds = %renorm.exit.i, %62
  %.lcssa2628 = phi i32 [ %65, %62 ], [ %43, %renorm.exit.i ]
  %.019.i.i = phi i16 [ %66, %62 ], [ %44, %renorm.exit.i ]
  store i16 %.019.i.i, ptr %6, align 2, !tbaa !167
  br i1 %23, label %127, label %67

67:                                               ; preds = %dirac_get_arith_bit.exit
  %68 = icmp sgt i32 %.0, 1073741823
  br i1 %68, label %69, label %70

69:                                               ; preds = %67
  tail call void (ptr, i32, ptr, ...) @av_log(ptr noundef null, i32 noundef 16, ptr noundef nonnull @.str.27) #13
  store i32 -1094995529, ptr %10, align 4, !tbaa !172
  br label %129

70:                                               ; preds = %67
  %71 = shl i32 %.0, 1
  %72 = load i16, ptr %12, align 2, !tbaa !95
  %73 = zext i16 %72 to i32
  %74 = zext i16 %42 to i32
  %75 = mul nuw nsw i32 %74, %73
  %76 = lshr i32 %75, 16
  %77 = lshr i32 %.lcssa2628, 16
  %78 = icmp samesign uge i32 %77, %76
  %79 = and i32 %75, 2147418112
  %80 = sub nsw i32 %74, %76
  %81 = select i1 %78, i32 %79, i32 0
  %.024.i12 = sub i32 %.lcssa2628, %81
  %.0.i13 = select i1 %78, i32 %80, i32 %76
  %82 = lshr i32 %73, 8
  %83 = zext nneg i32 %82 to i64
  %84 = zext i1 %78 to i64
  %85 = getelementptr inbounds nuw [256 x [2 x i16]], ptr @ff_dirac_prob_branchless, i64 0, i64 %83, i64 %84
  %86 = load i16, ptr %85, align 2, !tbaa !95
  %87 = add i16 %86, %72
  store i16 %87, ptr %12, align 2, !tbaa !95
  store i32 %.024.i12, ptr %0, align 8, !tbaa !164
  %88 = trunc i32 %.0.i13 to i16
  store i16 %88, ptr %5, align 4, !tbaa !166
  %89 = icmp ult i16 %88, 16385
  br i1 %89, label %.lr.ph.i.i19, label %renorm.exit.i15

.lr.ph.i.i19:                                     ; preds = %70, %.lr.ph.i.i19
  %90 = phi i16 [ %95, %.lr.ph.i.i19 ], [ %.019.i.i, %70 ]
  %91 = phi i32 [ %93, %.lr.ph.i.i19 ], [ %.024.i12, %70 ]
  %92 = phi i16 [ %94, %.lr.ph.i.i19 ], [ %88, %70 ]
  %93 = shl i32 %91, 1
  %94 = shl nuw i16 %92, 1
  %95 = add i16 %90, 1
  %96 = icmp ult i16 %92, 8193
  br i1 %96, label %.lr.ph.i.i19, label %._crit_edge.i.i20, !llvm.loop !168

._crit_edge.i.i20:                                ; preds = %.lr.ph.i.i19
  store i32 %93, ptr %0, align 8, !tbaa !164
  store i16 %94, ptr %5, align 4, !tbaa !166
  store i16 %95, ptr %6, align 2, !tbaa !167
  br label %renorm.exit.i15

renorm.exit.i15:                                  ; preds = %._crit_edge.i.i20, %70
  %97 = phi i16 [ %94, %._crit_edge.i.i20 ], [ %88, %70 ]
  %98 = phi i32 [ %93, %._crit_edge.i.i20 ], [ %.024.i12, %70 ]
  %99 = phi i16 [ %95, %._crit_edge.i.i20 ], [ %.019.i.i, %70 ]
  %100 = icmp sgt i16 %99, -1
  br i1 %100, label %101, label %dirac_get_arith_bit.exit21

101:                                              ; preds = %renorm.exit.i15
  %102 = load ptr, ptr %7, align 8, !tbaa !52
  %103 = getelementptr inbounds nuw i8, ptr %102, i64 2
  store ptr %103, ptr %7, align 8, !tbaa !52
  %104 = load i16, ptr %102, align 1, !tbaa !61
  %105 = tail call i16 @llvm.bswap.i16(i16 %104)
  %106 = zext i16 %105 to i32
  %107 = load ptr, ptr %8, align 8, !tbaa !169
  %108 = icmp ugt ptr %103, %107
  br i1 %108, label %109, label %117

109:                                              ; preds = %101
  %110 = or i32 %106, 255
  %111 = getelementptr inbounds nuw i8, ptr %107, i64 1
  %112 = icmp ugt ptr %103, %111
  %spec.select.i.i18 = select i1 %112, i32 65535, i32 %110
  store ptr %107, ptr %7, align 8, !tbaa !170
  %113 = load i32, ptr %9, align 8, !tbaa !171
  %114 = add nsw i32 %113, 1
  store i32 %114, ptr %9, align 8, !tbaa !171
  %115 = icmp sgt i32 %113, 3
  br i1 %115, label %116, label %117

116:                                              ; preds = %109
  store i32 -1094995529, ptr %10, align 4, !tbaa !172
  br label %117

117:                                              ; preds = %116, %109, %101
  %.0.i.i17 = phi i32 [ %spec.select.i.i18, %116 ], [ %spec.select.i.i18, %109 ], [ %106, %101 ]
  %118 = zext nneg i16 %99 to i32
  %119 = shl i32 %.0.i.i17, %118
  %120 = add i32 %119, %98
  store i32 %120, ptr %0, align 8, !tbaa !164
  %121 = add nsw i16 %99, -16
  br label %dirac_get_arith_bit.exit21

dirac_get_arith_bit.exit21:                       ; preds = %renorm.exit.i15, %117
  %.lcssa2629 = phi i32 [ %120, %117 ], [ %98, %renorm.exit.i15 ]
  %.019.i.i16 = phi i16 [ %121, %117 ], [ %99, %renorm.exit.i15 ]
  %122 = zext i1 %78 to i32
  store i16 %.019.i.i16, ptr %6, align 2, !tbaa !167
  %123 = or disjoint i32 %71, %122
  %124 = getelementptr inbounds nuw [22 x i8], ptr @ff_dirac_next_ctx, i64 0, i64 %15
  %125 = load i8, ptr %124, align 1, !tbaa !61
  %126 = zext i8 %125 to i32
  br label %13, !llvm.loop !272

127:                                              ; preds = %dirac_get_arith_bit.exit
  %128 = add nsw i32 %.0, -1
  br label %129

129:                                              ; preds = %127, %69
  %.010 = phi i32 [ -1, %69 ], [ %128, %127 ]
  ret i32 %.010
}